; Function Attrs: mustprogress nofree norecurse nosync nounwind memory(argmem: readwrite) uwtable
define void @_ZN3MD56updateEPKcj(ptr noundef nonnull align 4 captures(none) dereferenceable(108) %0, ptr noundef readonly captures(none) %1, i32 noundef %2) local_unnamed_addr #5 align 2 {
  %4 = getelementptr inbounds nuw i8, ptr %0, i64 68
  %5 = load i32, ptr %4, align 4, !tbaa !11
  %6 = lshr i32 %5, 3
  %7 = and i32 %6, 63
  %8 = shl i32 %2, 3
  %9 = add i32 %5, %8
  store i32 %9, ptr %4, align 4, !tbaa !11
  %10 = icmp ult i32 %9, %8
  %11 = getelementptr inbounds nuw i8, ptr %0, i64 72
  %12 = load i32, ptr %11, align 4, !tbaa !11
  %13 = zext i1 %10 to i32
  %14 = lshr i32 %2, 29
  %15 = add i32 %12, %14
  %16 = add i32 %15, %13
  store i32 %16, ptr %11, align 4, !tbaa !11
  %17 = sub nuw nsw i32 64, %7
  %.not.i = icmp ult i32 %2, %17
  br i1 %.not.i, label %28, label %18

18:                                               ; preds = %3
  %19 = getelementptr inbounds nuw i8, ptr %0, i64 1
  %20 = zext nneg i32 %7 to i64
  %21 = getelementptr inbounds nuw [64 x i8], ptr %19, i64 0, i64 %20
  %22 = zext nneg i32 %17 to i64
  tail call void @llvm.memcpy.p0.p0.i64(ptr noundef nonnull align 1 dereferenceable(1) %21, ptr noundef nonnull readonly align 1 dereferenceable(1) %1, i64 %22, i1 false)
  tail call void @_ZN3MD59transformEPKh(ptr noundef nonnull align 4 dereferenceable(108) %0, ptr noundef nonnull %19)
  %23 = sub nuw nsw i32 128, %7
  %.not2425.i = icmp ugt i32 %23, %2
  br i1 %.not2425.i, label %_ZN3MD56updateEPKhj.exit, label %.lr.ph.i

.lr.ph.i:                                         ; preds = %18, %.lr.ph.i
  %24 = phi i32 [ %27, %.lr.ph.i ], [ %23, %18 ]
  %.026.i = phi i32 [ %24, %.lr.ph.i ], [ %17, %18 ]
  %25 = zext i32 %.026.i to i64
  %26 = getelementptr inbounds nuw i8, ptr %1, i64 %25
  tail call void @_ZN3MD59transformEPKh(ptr noundef nonnull align 4 dereferenceable(108) %0, ptr noundef nonnull readonly %26)
  %27 = add i32 %24, 64
  %.not24.i = icmp ugt i32 %27, %2
  br i1 %.not24.i, label %_ZN3MD56updateEPKhj.exit, label %.lr.ph.i, !llvm.loop !20

28:                                               ; preds = %3
  %29 = zext nneg i32 %7 to i64
  br label %_ZN3MD56updateEPKhj.exit

_ZN3MD56updateEPKhj.exit:                         ; preds = %.lr.ph.i, %18, %28
  %.020.i = phi i64 [ %29, %28 ], [ 0, %18 ], [ 0, %.lr.ph.i ]
  %.1.i = phi i32 [ 0, %28 ], [ %17, %18 ], [ %24, %.lr.ph.i ]
  %30 = getelementptr inbounds nuw i8, ptr %0, i64 1
  %31 = getelementptr inbounds nuw [64 x i8], ptr %30, i64 0, i64 %.020.i
  %32 = zext i32 %.1.i to i64
  %33 = getelementptr inbounds nuw i8, ptr %1, i64 %32
  %34 = sub i32 %2, %.1.i
  %35 = zext i32 %34 to i64
  tail call void @llvm.memcpy.p0.p0.i64(ptr nonnull align 1 %31, ptr readonly align 1 %33, i64 %35, i1 false)
  ret void
}